Certificate:
    Data:
        Version: 3 (0x2)
        Serial Number:
            b4:35:2a:72:c3:66:a4:73:32:2d:b5:03:b3:29:d1:8b
        Signature Algorithm: sha256WithRSAEncryption
        Issuer: C=ES, O=Teleco, CN=Root CA
        Validity
            Not Before: Oct 18 18:54:17 2021 GMT
            Not After : Oct 16 18:54:17 2031 GMT
        Subject: C=ES, O=Teleco, CN=Root CA
        Subject Public Key Info:
            Public Key Algorithm: rsaEncryption
                RSA Public-Key: (4096 bit)
                Modulus:
                    00:ac:05:51:35:4c:d5:6b:4a:39:11:06:da:ff:15:
                    3d:f2:80:31:3e:e0:64:c5:f0:1f:22:1a:8a:10:6f:
                    4a:09:87:75:a3:d4:6a:28:d4:35:f2:00:90:f5:43:
                    2d:29:06:ab:3c:98:09:db:06:d8:fe:55:2c:67:8f:
                    02:3e:b1:a3:1f:2d:77:bc:6e:de:a3:73:ab:4a:b3:
                    98:5b:48:90:c8:13:da:dc:be:b6:59:77:12:08:3d:
                    b1:60:13:3c:d5:ed:e9:88:2d:e0:c6:b7:cd:7f:b6:
                    91:01:0b:70:c1:85:29:e5:3f:50:88:44:41:04:a2:
                    c3:4b:4f:c5:e9:1b:6f:4d:7c:07:11:f7:8f:00:bf:
                    c3:b5:a2:4e:67:41:3c:a8:da:af:cd:07:3f:1c:f3:
                    3b:b6:45:59:55:56:89:6f:c2:ee:98:3a:ce:4e:da:
                    a7:b8:14:74:08:1d:72:27:90:ef:51:f3:1d:8c:62:
                    0a:97:46:5b:5e:c6:7a:ef:2f:bc:b6:33:2f:b7:3c:
                    d9:dc:b5:3d:e1:cf:4e:09:1b:6e:3d:a3:86:e7:2f:
                    cc:89:b5:d3:2a:79:76:cf:29:23:a6:28:05:93:22:
                    42:8a:a6:d4:c7:10:fc:bd:04:14:71:0f:79:0a:7b:
                    bb:b1:2b:35:2c:0c:1e:5e:41:96:53:5b:72:45:63:
                    f1:3e:5a:5c:83:48:87:a7:9d:bb:2f:25:f8:30:f0:
                    09:1d:ae:92:20:b1:6f:56:29:05:26:e1:f1:61:ae:
                    8c:4b:61:38:56:8e:7b:4e:a7:bc:c5:2b:16:23:cc:
                    70:78:23:6e:74:81:dd:82:7f:b9:c6:6d:99:3d:d0:
                    f8:98:04:cc:d8:97:dc:2a:b6:b1:74:44:1d:76:32:
                    3e:07:03:f7:c1:ae:1c:be:70:82:3d:7b:2d:c8:7e:
                    97:c3:aa:fe:c8:17:8c:57:e7:77:bd:a8:b9:84:bd:
                    73:62:9f:9e:e5:89:10:e8:da:b7:4e:7a:30:67:ab:
                    61:56:2f:e1:d6:a5:1f:91:e5:52:e1:d6:39:78:59:
                    a4:31:c7:51:f0:bc:23:63:12:a8:16:db:29:32:0c:
                    9e:59:4f:29:71:41:08:75:4e:b1:2d:5b:63:9b:d0:
                    c4:0d:e4:26:e8:45:0f:9a:37:41:8c:0e:cc:ca:e1:
                    aa:bd:ef:28:62:fd:41:8c:e4:1b:7e:df:ba:f7:93:
                    ac:f4:2b:2e:73:ce:58:3c:1e:b3:82:c2:b4:e9:fe:
                    97:bd:1d:53:e3:e8:c2:34:e7:31:e6:7b:b4:c7:8a:
                    38:f3:a9:f7:f0:ee:67:ea:02:7e:88:8d:38:38:23:
                    48:b9:29:d0:5a:ae:70:10:f5:f9:f4:a8:cd:ca:8b:
                    be:f6:2d
                Exponent: 65537 (0x10001)
        X509v3 extensions:
            X509v3 Basic Constraints: critical
                CA:TRUE
            X509v3 Key Usage: critical
                Certificate Sign, CRL Sign
            X509v3 Subject Key Identifier: 
                5C:4E:1C:32:F6:7B:E5:81:C1:0B:92:82:B4:F4:1B:9D:CC:02:E6:D3
    Signature Algorithm: sha256WithRSAEncryption
         1e:a6:ef:7b:70:02:65:39:bc:19:83:48:cf:a8:3e:d3:de:9c:
         2d:b2:62:2b:26:88:6a:76:89:2c:b3:c4:96:4a:a5:3c:65:f4:
         f6:f4:2b:53:45:6e:bd:bd:85:59:97:c1:fd:39:4e:02:5b:a8:
         69:9e:2a:19:56:ac:71:16:46:9f:7c:fb:05:02:26:4e:b3:3b:
         6a:ef:78:72:e6:ca:d9:f9:e9:f0:20:3e:72:8a:f0:62:2d:83:
         d1:51:4e:9e:b3:f4:3b:7c:fc:42:a3:08:75:da:d8:59:5a:cb:
         a5:e5:d8:d9:98:f0:1b:d9:96:02:f4:a1:e3:e4:70:f8:0f:5b:
         eb:48:ba:3e:b5:71:73:9a:eb:b3:c9:e0:58:03:ba:64:e4:8d:
         80:e2:c6:07:8a:2e:f0:bf:23:88:76:c8:5d:03:6c:3b:ea:5f:
         15:5e:41:1a:fc:a1:df:af:32:ad:d8:c2:69:07:c4:1e:4b:b5:
         7f:d7:51:e8:d0:bc:b8:07:e9:59:ca:1c:56:ff:6a:02:5f:70:
         68:b1:7c:5c:f5:0f:7f:cb:10:60:20:c6:e3:58:ce:63:0e:88:
         3d:a1:90:14:f7:1e:cf:5d:37:e8:03:07:e1:89:78:9a:99:c6:
         1f:df:24:ba:ad:c3:d7:7d:65:ed:33:74:cb:83:e2:b6:06:8b:
         95:65:d2:89:7a:97:19:bd:4b:32:26:ef:9d:e6:a2:25:22:a3:
         ed:f3:77:9f:79:53:d7:e2:32:dc:45:a1:62:c8:49:28:97:7b:
         4e:67:bf:46:6b:c2:f3:ce:aa:bd:c6:5e:5f:8b:bb:72:dc:2d:
         1a:26:69:a4:cf:0b:a9:bc:4e:1b:75:05:10:19:6e:ab:f4:93:
         b6:69:b3:ad:9b:8c:fa:25:b8:37:5d:78:0f:7d:de:14:f2:c2:
         cd:46:d7:b3:ad:f4:b4:d9:98:89:dc:d9:1f:cc:ff:fb:7d:2c:
         97:4c:de:0d:7a:9e:2a:76:b9:e5:b0:59:62:53:32:f7:6b:4c:
         62:7c:ea:76:40:a1:db:22:0f:43:85:cf:33:35:95:be:c0:03:
         f5:45:6f:78:da:f5:25:a4:c2:b0:ec:cc:5e:a2:da:ed:8f:b7:
         24:d0:50:96:1b:79:1a:b0:a2:41:e7:14:6f:2f:a6:8f:50:da:
         b6:80:1f:6f:63:c9:a7:a4:f3:cf:a1:f2:b3:e5:de:6f:3d:2b:
         a0:d0:e8:4b:24:eb:96:07:4b:4b:47:f1:87:cf:20:bb:91:82:
         6a:82:9d:8a:ef:81:1a:c5:0d:f6:4b:70:0c:9c:38:4f:87:0f:
         0f:f3:4f:bb:f6:5e:28:7a:3a:cc:e1:b9:ec:20:65:7a:72:7a:
         88:96:11:dc:51:8d:77:c9
-----BEGIN CERTIFICATE-----
MIIFLTCCAxWgAwIBAgIRALQ1KnLDZqRzMi21A7Mp0YswDQYJKoZIhvcNAQELBQAw
MDELMAkGA1UEBhMCRVMxDzANBgNVBAoMBlRlbGVjbzEQMA4GA1UEAwwHUm9vdCBD
QTAeFw0yMTEwMTgxODU0MTdaFw0zMTEwMTYxODU0MTdaMDAxCzAJBgNVBAYTAkVT
MQ8wDQYDVQQKDAZUZWxlY28xEDAOBgNVBAMMB1Jvb3QgQ0EwggIiMA0GCSqGSIb3
DQEBAQUAA4ICDwAwggIKAoICAQCsBVE1TNVrSjkRBtr/FT3ygDE+4GTF8B8iGooQ
b0oJh3Wj1Goo1DXyAJD1Qy0pBqs8mAnbBtj+VSxnjwI+saMfLXe8bt6jc6tKs5hb
SJDIE9rcvrZZdxIIPbFgEzzV7emILeDGt81/tpEBC3DBhSnlP1CIREEEosNLT8Xp
G29NfAcR948Av8O1ok5nQTyo2q/NBz8c8zu2RVlVVolvwu6YOs5O2qe4FHQIHXIn
kO9R8x2MYgqXRltexnrvL7y2My+3PNnctT3hz04JG249o4bnL8yJtdMqeXbPKSOm
KAWTIkKKptTHEPy9BBRxD3kKe7uxKzUsDB5eQZZTW3JFY/E+WlyDSIennbsvJfgw
8AkdrpIgsW9WKQUm4fFhroxLYThWjntOp7zFKxYjzHB4I250gd2Cf7nGbZk90PiY
BMzYl9wqtrF0RB12Mj4HA/fBrhy+cII9ey3IfpfDqv7IF4xX53e9qLmEvXNin57l
iRDo2rdOejBnq2FWL+HWpR+R5VLh1jl4WaQxx1HwvCNjEqgW2ykyDJ5ZTylxQQh1
TrEtW2Ob0MQN5CboRQ+aN0GMDszK4aq97yhi/UGM5Bt+37r3k6z0Ky5zzlg8HrOC
wrTp/pe9HVPj6MI05zHme7THijjzqffw7mfqAn6IjTg4I0i5KdBarnAQ9fn0qM3K
i772LQIDAQABo0IwQDAPBgNVHRMBAf8EBTADAQH/MA4GA1UdDwEB/wQEAwIBBjAd
BgNVHQ4EFgQUXE4cMvZ75YHBC5KCtPQbncwC5tMwDQYJKoZIhvcNAQELBQADggIB
AB6m73twAmU5vBmDSM+oPtPenC2yYismiGp2iSyzxJZKpTxl9Pb0K1NFbr29hVmX
wf05TgJbqGmeKhlWrHEWRp98+wUCJk6zO2rveHLmytn56fAgPnKK8GItg9FRTp6z
9Dt8/EKjCHXa2Flay6Xl2NmY8BvZlgL0oePkcPgPW+tIuj61cXOa67PJ4FgDumTk
jYDixgeKLvC/I4h2yF0DbDvqXxVeQRr8od+vMq3YwmkHxB5LtX/XUejQvLgH6VnK
HFb/agJfcGixfFz1D3/LEGAgxuNYzmMOiD2hkBT3Hs9dN+gDB+GJeJqZxh/fJLqt
w9d9Ze0zdMuD4rYGi5Vl0ol6lxm9SzIm753moiUio+3zd595U9fiMtxFoWLISSiX
e05nv0ZrwvPOqr3GXl+Lu3LcLRomaaTPC6m8Tht1BRAZbqv0k7Zps62bjPoluDdd
eA993hTyws1G17Ot9LTZmInc2R/M//t9LJdM3g16nip2ueWwWWJTMvdrTGJ86nZA
odsiD0OFzzM1lb7AA/VFb3ja9SWkwrDszF6i2u2PtyTQUJYbeRqwokHnFG8vpo9Q
2raAH29jyaek88+h8rPl3m89K6DQ6Esk65YHS0tH8YfPILuRgmqCnYrvgRrFDfZL
cAycOE+HDw/zT7v2Xih6OszhuewgZXpyeoiWEdxRjXfJ
-----END CERTIFICATE-----
