Certificate:
    Data:
        Version: 3 (0x2)
        Serial Number:
            b4:35:2a:72:c3:66:a4:73:32:2d:b5:03:b3:29:d1:92
        Signature Algorithm: sha256WithRSAEncryption
        Issuer: C=ES, O=Teleco, CN=Root CA
        Validity
            Not Before: Oct 25 16:13:35 2021 GMT
            Not After : Oct 23 16:13:35 2031 GMT
        Subject: C=ES, O=Teleco, CN=rsa_cliente
        Subject Public Key Info:
            Public Key Algorithm: rsaEncryption
                RSA Public-Key: (2048 bit)
                Modulus:
                    00:d8:9f:2e:fc:60:17:b5:05:bb:72:84:2b:c4:89:
                    ea:13:e1:a6:67:8e:d9:bc:3d:cb:56:60:c3:e2:4c:
                    71:ab:ff:cc:d5:0d:48:3a:a9:5e:17:a7:ec:1c:60:
                    a9:b6:4c:f1:12:2a:d0:f4:bd:5e:65:b7:34:b2:8b:
                    49:59:c1:99:f4:d4:df:2e:41:bc:51:f3:f1:12:df:
                    46:0c:07:d3:b4:33:b0:28:b5:58:bc:52:75:d6:14:
                    50:69:ae:38:3b:87:4e:c9:64:4e:4e:f4:bc:b9:8e:
                    37:ff:10:be:38:f4:6d:99:95:c7:14:dd:2b:eb:e6:
                    3d:0d:e4:16:57:30:92:66:bc:34:41:e6:3c:c0:88:
                    73:e1:6b:e3:25:1d:45:f4:b1:b5:ff:10:8c:80:a9:
                    b0:7a:b5:52:5b:ad:02:17:af:c6:43:a3:10:ee:19:
                    ee:b2:94:59:cc:8c:f0:bb:03:78:41:6c:22:47:ef:
                    32:bb:c2:54:21:cd:cd:3b:2a:d8:2c:2b:1b:ca:c9:
                    77:58:b3:33:28:50:11:49:3f:d7:35:26:7a:51:25:
                    97:16:f1:be:d2:e8:69:4f:28:00:86:bf:cf:4f:bf:
                    09:20:80:88:ea:c0:54:ac:98:63:9b:99:6d:47:91:
                    ca:37:bf:c7:e2:ce:c5:68:c6:c4:c6:7b:d7:c9:08:
                    a9:97
                Exponent: 65537 (0x10001)
        X509v3 extensions:
            Authority Information Access: 
                CA Issuers - URI:http://root-ca.example.com/root-ca.crt
                OCSP - URI:http://ocsp.root-ca.example.com:9080

            X509v3 Authority Key Identifier: 
                keyid:5C:4E:1C:32:F6:7B:E5:81:C1:0B:92:82:B4:F4:1B:9D:CC:02:E6:D3

            X509v3 Basic Constraints: critical
                CA:TRUE, pathlen:0
            X509v3 CRL Distribution Points: 

                Full Name:
                  URI:http://root-ca.example.com/root-ca.crl

            X509v3 Extended Key Usage: 
                TLS Web Client Authentication, TLS Web Server Authentication
            X509v3 Key Usage: critical
                Certificate Sign, CRL Sign
            X509v3 Name Constraints: 
                Permitted:
                  DNS:example.com
                  DNS:example.org
                Excluded:
                  IP:0.0.0.0/0.0.0.0
                  IP:0:0:0:0:0:0:0:0/0:0:0:0:0:0:0:0

            X509v3 Subject Key Identifier: 
                2D:57:28:D1:15:27:BF:01:3E:6E:44:03:42:F4:A0:BA:52:B4:CA:EC
    Signature Algorithm: sha256WithRSAEncryption
         3c:f0:ea:0c:35:44:44:13:20:e2:39:fc:eb:ae:5b:64:60:96:
         86:d5:ac:32:e0:2f:01:36:26:00:ad:12:59:f7:b2:8e:23:47:
         e2:34:a9:1d:63:14:02:86:1a:ef:12:5e:b5:5e:8a:5b:8f:fd:
         8c:41:7f:fa:5c:55:06:50:e1:e6:83:e0:f9:b8:27:46:9a:85:
         66:dd:1e:d7:50:81:4c:53:cf:cc:08:19:30:63:be:bc:c3:6d:
         b8:57:84:0d:26:09:f8:ae:41:26:47:b7:c3:57:82:a7:33:b0:
         27:eb:44:fd:0b:ec:f7:74:1f:77:6c:49:65:f5:a7:61:95:9b:
         91:ed:f8:59:00:16:55:3c:a1:ae:4d:4a:94:9d:43:e0:6e:01:
         b5:48:8a:6f:49:fc:51:bf:e0:db:b9:f0:91:bd:49:e0:e4:13:
         fd:f4:01:b7:30:6f:cb:35:54:68:3b:50:44:dd:95:6f:56:ac:
         92:05:c1:72:47:19:22:b9:06:a1:d7:ec:fb:d5:1c:a9:b4:40:
         a0:d9:8f:f0:06:a6:2c:96:74:b7:4b:10:01:f6:4e:cc:2a:82:
         f0:b6:d4:0c:a0:1a:e0:89:a1:82:b4:3a:60:91:cf:09:ea:17:
         9c:28:5a:5f:e2:c7:36:29:16:34:0f:36:1b:cb:d1:23:9d:82:
         c9:40:85:94:c3:38:44:61:ea:7c:5b:37:7e:b6:b7:5d:50:f6:
         63:38:88:27:58:51:00:4b:bc:5e:64:b0:d6:6e:1c:b4:65:d0:
         e6:a9:19:01:a9:4a:73:70:7e:bb:d3:2e:e1:d7:c7:b1:80:5a:
         4f:c9:4a:0f:c0:f1:13:3c:45:89:49:c1:a1:41:08:6d:1a:c5:
         23:9c:b7:44:dd:f3:8b:8e:83:db:e7:b0:da:a2:99:be:cb:d7:
         27:34:b9:d7:df:d5:cd:ac:61:41:71:9b:05:c9:e9:53:82:f8:
         b4:4d:24:fd:a9:a2:98:66:7c:d8:63:41:34:39:df:03:b4:b8:
         3e:92:da:5e:8d:ca:2d:97:9d:38:12:0c:86:0f:48:ec:83:b6:
         46:86:6a:68:c8:57:3c:47:16:40:46:6c:6e:76:12:a9:c4:0e:
         25:eb:6c:2e:e1:b0:3e:1c:a5:06:c5:ec:46:d6:1c:80:32:80:
         0c:30:4a:3a:61:ba:33:9a:78:e1:15:b0:8c:6e:d4:8d:a7:03:
         99:dd:34:80:c9:20:b7:ed:31:ff:82:37:1d:c4:07:24:b6:75:
         4b:a7:56:de:a7:88:38:b3:8d:de:a8:d2:4d:c9:f7:ab:15:e6:
         e1:3d:3e:1d:05:70:39:b7:ce:07:90:f1:11:5d:03:8e:02:94:
         26:9d:54:ba:98:9a:6d:8c
-----BEGIN CERTIFICATE-----
MIIFhDCCA2ygAwIBAgIRALQ1KnLDZqRzMi21A7Mp0ZIwDQYJKoZIhvcNAQELBQAw
MDELMAkGA1UEBhMCRVMxDzANBgNVBAoMBlRlbGVjbzEQMA4GA1UEAwwHUm9vdCBD
QTAeFw0yMTEwMjUxNjEzMzVaFw0zMTEwMjMxNjEzMzVaMDQxCzAJBgNVBAYTAkVT
MQ8wDQYDVQQKDAZUZWxlY28xFDASBgNVBAMMC3JzYV9jbGllbnRlMIIBIjANBgkq
hkiG9w0BAQEFAAOCAQ8AMIIBCgKCAQEA2J8u/GAXtQW7coQrxInqE+GmZ47ZvD3L
VmDD4kxxq//M1Q1IOqleF6fsHGCptkzxEirQ9L1eZbc0sotJWcGZ9NTfLkG8UfPx
Et9GDAfTtDOwKLVYvFJ11hRQaa44O4dOyWROTvS8uY43/xC+OPRtmZXHFN0r6+Y9
DeQWVzCSZrw0QeY8wIhz4WvjJR1F9LG1/xCMgKmwerVSW60CF6/GQ6MQ7hnuspRZ
zIzwuwN4QWwiR+8yu8JUIc3NOyrYLCsbysl3WLMzKFARST/XNSZ6USWXFvG+0uhp
TygAhr/PT78JIICI6sBUrJhjm5ltR5HKN7/H4s7FaMbExnvXyQiplwIDAQABo4IB
kzCCAY8wdAYIKwYBBQUHAQEEaDBmMDIGCCsGAQUFBzAChiZodHRwOi8vcm9vdC1j
YS5leGFtcGxlLmNvbS9yb290LWNhLmNydDAwBggrBgEFBQcwAYYkaHR0cDovL29j
c3Aucm9vdC1jYS5leGFtcGxlLmNvbTo5MDgwMB8GA1UdIwQYMBaAFFxOHDL2e+WB
wQuSgrT0G53MAubTMBIGA1UdEwEB/wQIMAYBAf8CAQAwNwYDVR0fBDAwLjAsoCqg
KIYmaHR0cDovL3Jvb3QtY2EuZXhhbXBsZS5jb20vcm9vdC1jYS5jcmwwHQYDVR0l
BBYwFAYIKwYBBQUHAwIGCCsGAQUFBwMBMA4GA1UdDwEB/wQEAwIBBjBbBgNVHR4E
VDBSoB4wDYILZXhhbXBsZS5jb20wDYILZXhhbXBsZS5vcmehMDAKhwgAAAAAAAAA
ADAihyAAAAAAAAAAAAAAAAAAAAAAAAAAAAAAAAAAAAAAAAAAADAdBgNVHQ4EFgQU
LVco0RUnvwE+bkQDQvSgulK0yuwwDQYJKoZIhvcNAQELBQADggIBADzw6gw1REQT
IOI5/OuuW2RglobVrDLgLwE2JgCtEln3so4jR+I0qR1jFAKGGu8SXrVeiluP/YxB
f/pcVQZQ4eaD4Pm4J0aahWbdHtdQgUxTz8wIGTBjvrzDbbhXhA0mCfiuQSZHt8NX
gqczsCfrRP0L7Pd0H3dsSWX1p2GVm5Ht+FkAFlU8oa5NSpSdQ+BuAbVIim9J/FG/
4Nu58JG9SeDkE/30Abcwb8s1VGg7UETdlW9WrJIFwXJHGSK5BqHX7PvVHKm0QKDZ
j/AGpiyWdLdLEAH2TswqgvC21AygGuCJoYK0OmCRzwnqF5woWl/ixzYpFjQPNhvL
0SOdgslAhZTDOERh6nxbN362t11Q9mM4iCdYUQBLvF5ksNZuHLRl0OapGQGpSnNw
frvTLuHXx7GAWk/JSg/A8RM8RYlJwaFBCG0axSOct0Td84uOg9vnsNqimb7L1yc0
udff1c2sYUFxmwXJ6VOC+LRNJP2pophmfNhjQTQ53wO0uD6S2l6Nyi2XnTgSDIYP
SOyDtkaGamjIVzxHFkBGbG52EqnEDiXrbC7hsD4cpQbF7EbWHIAygAwwSjphujOa
eOEVsIxu1I2nA5ndNIDJILftMf+CNx3EByS2dUunVt6niDizjd6o0k3J96sV5uE9
Ph0FcDm3zgeQ8RFdA44ClCadVLqYmm2M
-----END CERTIFICATE-----
