Certificate:
    Data:
        Version: 3 (0x2)
        Serial Number:
            b4:35:2a:72:c3:66:a4:73:32:2d:b5:03:b3:29:d1:8f
        Signature Algorithm: sha256WithRSAEncryption
        Issuer: C=ES, O=Teleco, CN=Root CA
        Validity
            Not Before: Oct 25 16:09:39 2021 GMT
            Not After : Oct 23 16:09:39 2031 GMT
        Subject: C=ES, O=Teleco, CN=rsa_server
        Subject Public Key Info:
            Public Key Algorithm: rsaEncryption
                RSA Public-Key: (2048 bit)
                Modulus:
                    00:ac:8d:d1:a5:16:2f:b3:cb:4a:10:2a:f7:87:72:
                    83:7d:84:0a:f3:b6:70:f7:94:0c:3a:66:a5:b3:45:
                    49:d7:9c:a0:42:f4:a1:55:38:e6:5f:0b:15:8a:33:
                    e3:81:8f:5a:d6:f2:fa:2e:2d:90:c3:5e:9c:ca:43:
                    e0:a1:dd:13:80:34:ac:99:a3:ac:21:6b:b4:a1:d3:
                    41:44:ac:b2:82:fd:22:a1:5e:e6:d5:24:34:31:e0:
                    0f:80:d6:89:5d:10:c2:57:b6:90:17:42:48:68:23:
                    b2:fe:d4:39:a1:87:2d:2d:0c:75:01:26:24:a5:29:
                    20:23:2e:12:cf:29:cc:02:96:38:bf:90:c6:d6:43:
                    14:a8:81:48:ac:a2:fd:6f:ba:31:f7:8f:22:96:6b:
                    d1:c9:14:4c:73:b8:66:81:af:f6:2b:d0:7e:02:6e:
                    67:4e:6a:41:b4:9d:d2:21:36:fa:d9:92:cc:8d:ca:
                    aa:73:d9:47:56:a0:1f:a8:c9:15:0f:ac:2f:8b:52:
                    80:c3:d3:29:7a:c5:10:2b:76:a5:b5:39:8f:de:76:
                    22:8e:0b:01:9c:e5:a3:11:6a:9c:fc:b6:68:90:3a:
                    bb:c7:f8:dd:5a:19:18:0e:94:12:45:94:3c:55:a1:
                    3e:7e:50:1a:0e:3e:f8:0d:83:5b:b3:69:49:97:66:
                    5d:71
                Exponent: 65537 (0x10001)
        X509v3 extensions:
            Authority Information Access: 
                CA Issuers - URI:http://root-ca.example.com/root-ca.crt
                OCSP - URI:http://ocsp.root-ca.example.com:9080

            X509v3 Authority Key Identifier: 
                keyid:5C:4E:1C:32:F6:7B:E5:81:C1:0B:92:82:B4:F4:1B:9D:CC:02:E6:D3

            X509v3 Basic Constraints: critical
                CA:TRUE, pathlen:0
            X509v3 CRL Distribution Points: 

                Full Name:
                  URI:http://root-ca.example.com/root-ca.crl

            X509v3 Extended Key Usage: 
                TLS Web Client Authentication, TLS Web Server Authentication
            X509v3 Key Usage: critical
                Certificate Sign, CRL Sign
            X509v3 Name Constraints: 
                Permitted:
                  DNS:example.com
                  DNS:example.org
                Excluded:
                  IP:0.0.0.0/0.0.0.0
                  IP:0:0:0:0:0:0:0:0/0:0:0:0:0:0:0:0

            X509v3 Subject Key Identifier: 
                AD:9B:2C:43:99:5F:EF:E2:5D:15:15:D2:62:EF:4A:59:E5:63:39:F1
    Signature Algorithm: sha256WithRSAEncryption
         77:35:35:8a:ba:66:39:5d:c2:91:90:b1:b3:8f:09:23:b9:05:
         0d:15:05:f9:1d:ab:4e:81:be:06:d2:f2:03:6a:c3:77:b8:6f:
         e4:27:87:c5:2c:30:43:92:87:e2:38:8b:a6:a2:83:58:2a:f3:
         ed:25:7e:08:f4:43:1b:c9:0b:96:cd:81:8e:d6:d2:14:47:b6:
         9d:04:f5:1e:e9:ef:a9:51:f6:2a:3c:27:1b:bb:11:3a:45:99:
         4a:18:11:1a:de:e9:26:c1:f9:e2:3e:21:96:51:f8:cc:04:df:
         9f:e2:d4:bf:7e:22:55:89:39:c6:74:c0:4c:95:73:1f:76:a5:
         9c:68:fb:87:15:f1:66:d9:6c:b8:fc:ad:ef:10:be:4c:bc:31:
         33:bd:35:30:55:ea:8d:e5:59:d1:f2:bf:9a:72:a8:d3:f7:43:
         20:80:14:25:41:eb:c8:e2:d2:1b:a0:4f:63:50:d2:7f:11:aa:
         e8:1b:7b:dc:af:cd:e9:89:53:87:31:d7:82:21:40:5c:ea:c1:
         50:aa:96:99:35:05:79:35:30:66:8b:66:7a:d6:78:fa:fe:5a:
         8e:47:13:c7:f5:17:d4:d5:4f:3d:ee:d4:b0:2e:a5:ba:ab:6b:
         81:68:ed:a7:d8:1d:73:d4:46:43:ad:1d:ef:2b:48:0d:8a:59:
         7a:e4:a4:57:1a:42:3e:41:57:70:15:97:c3:9d:8c:42:2e:76:
         a2:a2:22:cc:ee:6f:28:80:b3:c6:bd:09:39:f3:e3:11:f8:b3:
         d5:98:77:a0:a9:68:8a:21:6e:84:ff:25:eb:a7:91:bb:13:e6:
         94:fb:1d:24:f2:a3:7b:35:a9:3d:aa:fc:d2:ef:79:82:8f:d8:
         99:36:11:27:07:c3:cb:f0:af:df:c5:d1:1a:c4:a9:ac:35:a4:
         ae:31:64:8a:3d:7b:ce:b7:e9:af:77:d2:55:3c:4c:63:1b:dd:
         f2:ba:c9:3b:6d:96:dc:7b:83:a9:99:03:6a:b7:7a:a4:31:8a:
         d9:9a:d0:78:cd:ee:d8:c4:85:29:ea:9a:87:a5:23:22:6c:60:
         3a:8e:1a:46:66:15:42:3c:79:cd:2e:75:e3:1b:0c:67:aa:2a:
         5d:40:38:6e:c4:8e:03:bc:1d:e9:a6:0a:bb:17:88:07:67:44:
         8d:2a:72:70:8d:6a:6d:04:3b:aa:f6:5e:78:bb:98:e0:12:ad:
         98:79:5f:b3:ef:b0:f4:02:a2:aa:2f:42:e7:30:59:0c:07:94:
         7b:ad:64:e7:cc:f3:c9:13:e0:84:f8:9a:9e:c0:5e:27:8f:1c:
         7e:bc:09:d8:b3:14:4e:f4:44:a1:f0:39:36:e8:00:e9:96:c1:
         35:c6:e0:b5:18:0f:af:32
-----BEGIN CERTIFICATE-----
MIIFgzCCA2ugAwIBAgIRALQ1KnLDZqRzMi21A7Mp0Y8wDQYJKoZIhvcNAQELBQAw
MDELMAkGA1UEBhMCRVMxDzANBgNVBAoMBlRlbGVjbzEQMA4GA1UEAwwHUm9vdCBD
QTAeFw0yMTEwMjUxNjA5MzlaFw0zMTEwMjMxNjA5MzlaMDMxCzAJBgNVBAYTAkVT
MQ8wDQYDVQQKDAZUZWxlY28xEzARBgNVBAMMCnJzYV9zZXJ2ZXIwggEiMA0GCSqG
SIb3DQEBAQUAA4IBDwAwggEKAoIBAQCsjdGlFi+zy0oQKveHcoN9hArztnD3lAw6
ZqWzRUnXnKBC9KFVOOZfCxWKM+OBj1rW8vouLZDDXpzKQ+Ch3ROANKyZo6wha7Sh
00FErLKC/SKhXubVJDQx4A+A1oldEMJXtpAXQkhoI7L+1Dmhhy0tDHUBJiSlKSAj
LhLPKcwClji/kMbWQxSogUisov1vujH3jyKWa9HJFExzuGaBr/Yr0H4CbmdOakG0
ndIhNvrZksyNyqpz2UdWoB+oyRUPrC+LUoDD0yl6xRArdqW1OY/ediKOCwGc5aMR
apz8tmiQOrvH+N1aGRgOlBJFlDxVoT5+UBoOPvgNg1uzaUmXZl1xAgMBAAGjggGT
MIIBjzB0BggrBgEFBQcBAQRoMGYwMgYIKwYBBQUHMAKGJmh0dHA6Ly9yb290LWNh
LmV4YW1wbGUuY29tL3Jvb3QtY2EuY3J0MDAGCCsGAQUFBzABhiRodHRwOi8vb2Nz
cC5yb290LWNhLmV4YW1wbGUuY29tOjkwODAwHwYDVR0jBBgwFoAUXE4cMvZ75YHB
C5KCtPQbncwC5tMwEgYDVR0TAQH/BAgwBgEB/wIBADA3BgNVHR8EMDAuMCygKqAo
hiZodHRwOi8vcm9vdC1jYS5leGFtcGxlLmNvbS9yb290LWNhLmNybDAdBgNVHSUE
FjAUBggrBgEFBQcDAgYIKwYBBQUHAwEwDgYDVR0PAQH/BAQDAgEGMFsGA1UdHgRU
MFKgHjANggtleGFtcGxlLmNvbTANggtleGFtcGxlLm9yZ6EwMAqHCAAAAAAAAAAA
MCKHIAAAAAAAAAAAAAAAAAAAAAAAAAAAAAAAAAAAAAAAAAAAMB0GA1UdDgQWBBSt
myxDmV/v4l0VFdJi70pZ5WM58TANBgkqhkiG9w0BAQsFAAOCAgEAdzU1irpmOV3C
kZCxs48JI7kFDRUF+R2rToG+BtLyA2rDd7hv5CeHxSwwQ5KH4jiLpqKDWCrz7SV+
CPRDG8kLls2BjtbSFEe2nQT1HunvqVH2KjwnG7sROkWZShgRGt7pJsH54j4hllH4
zATfn+LUv34iVYk5xnTATJVzH3alnGj7hxXxZtlsuPyt7xC+TLwxM701MFXqjeVZ
0fK/mnKo0/dDIIAUJUHryOLSG6BPY1DSfxGq6Bt73K/N6YlThzHXgiFAXOrBUKqW
mTUFeTUwZotmetZ4+v5ajkcTx/UX1NVPPe7UsC6luqtrgWjtp9gdc9RGQ60d7ytI
DYpZeuSkVxpCPkFXcBWXw52MQi52oqIizO5vKICzxr0JOfPjEfiz1Zh3oKloiiFu
hP8l66eRuxPmlPsdJPKjezWpPar80u95go/YmTYRJwfDy/Cv38XRGsSprDWkrjFk
ij17zrfpr3fSVTxMYxvd8rrJO22W3HuDqZkDard6pDGK2ZrQeM3u2MSFKeqah6Uj
ImxgOo4aRmYVQjx5zS514xsMZ6oqXUA4bsSOA7wd6aYKuxeIB2dEjSpycI1qbQQ7
qvZeeLuY4BKtmHlfs++w9AKiqi9C5zBZDAeUe61k58zzyRPghPiansBeJ48cfrwJ
2LMUTvREofA5NugA6ZbBNcbgtRgPrzI=
-----END CERTIFICATE-----
