Certificate:
    Data:
        Version: 3 (0x2)
        Serial Number:
            b4:35:2a:72:c3:66:a4:73:32:2d:b5:03:b3:29:d1:90
        Signature Algorithm: sha256WithRSAEncryption
        Issuer: C=ES, O=Teleco, CN=Root CA
        Validity
            Not Before: Oct 25 16:09:59 2021 GMT
            Not After : Oct 23 16:09:59 2031 GMT
        Subject: C=ES, O=Teleco, CN=dsa_server
        Subject Public Key Info:
            Public Key Algorithm: dsaEncryption
                pub: 
                    1e:f4:32:d4:95:ce:03:21:72:9f:a7:0f:6d:3b:da:
                    68:b5:f6:c3:04:7e:72:58:58:7a:7d:06:57:47:66:
                    8a:a7:b1:22:37:2c:80:1f:ca:52:8a:a1:97:5c:78:
                    66:56:35:2b:96:84:36:ae:1f:30:b4:63:9f:59:6e:
                    9a:39:44:d8:d5:0a:12:76:23:65:d8:14:94:8a:2e:
                    fa:01:b9:75:79:2b:25:05:2b:f9:18:d6:d1:e9:fd:
                    b7:9e:19:0c:b5:9b:1f:94:fa:c5:6f:24:4c:c2:0b:
                    8a:1d:c9:ef:cd:8a:9b:94:ca:66:93:01:a5:66:d6:
                    ee:0d:ea:b8:ec:95:71:92
                P:   
                    00:fd:7f:53:81:1d:75:12:29:52:df:4a:9c:2e:ec:
                    e4:e7:f6:11:b7:52:3c:ef:44:00:c3:1e:3f:80:b6:
                    51:26:69:45:5d:40:22:51:fb:59:3d:8d:58:fa:bf:
                    c5:f5:ba:30:f6:cb:9b:55:6c:d7:81:3b:80:1d:34:
                    6f:f2:66:60:b7:6b:99:50:a5:a4:9f:9f:e8:04:7b:
                    10:22:c2:4f:bb:a9:d7:fe:b7:c6:1b:f8:3b:57:e7:
                    c6:a8:a6:15:0f:04:fb:83:f6:d3:c5:1e:c3:02:35:
                    54:13:5a:16:91:32:f6:75:f3:ae:2b:61:d7:2a:ef:
                    f2:22:03:19:9d:d1:48:01:c7
                Q:   
                    00:97:60:50:8f:15:23:0b:cc:b2:92:b9:82:a2:eb:
                    84:0b:f0:58:1c:f5
                G:   
                    00:f7:e1:a0:85:d6:9b:3d:de:cb:bc:ab:5c:36:b8:
                    57:b9:79:94:af:bb:fa:3a:ea:82:f9:57:4c:0b:3d:
                    07:82:67:51:59:57:8e:ba:d4:59:4f:e6:71:07:10:
                    81:80:b4:49:16:71:23:e8:4c:28:16:13:b7:cf:09:
                    32:8c:c8:a6:e1:3c:16:7a:8b:54:7c:8d:28:e0:a3:
                    ae:1e:2b:b3:a6:75:91:6e:a3:7f:0b:fa:21:35:62:
                    f1:fb:62:7a:01:24:3b:cc:a4:f1:be:a8:51:90:89:
                    a8:83:df:e1:5a:e5:9f:06:92:8b:66:5e:80:7b:55:
                    25:64:01:4c:3b:fe:cf:49:2a
        X509v3 extensions:
            Authority Information Access: 
                CA Issuers - URI:http://root-ca.example.com/root-ca.crt
                OCSP - URI:http://ocsp.root-ca.example.com:9080

            X509v3 Authority Key Identifier: 
                keyid:5C:4E:1C:32:F6:7B:E5:81:C1:0B:92:82:B4:F4:1B:9D:CC:02:E6:D3

            X509v3 Basic Constraints: critical
                CA:TRUE, pathlen:0
            X509v3 CRL Distribution Points: 

                Full Name:
                  URI:http://root-ca.example.com/root-ca.crl

            X509v3 Extended Key Usage: 
                TLS Web Client Authentication, TLS Web Server Authentication
            X509v3 Key Usage: critical
                Certificate Sign, CRL Sign
            X509v3 Name Constraints: 
                Permitted:
                  DNS:example.com
                  DNS:example.org
                Excluded:
                  IP:0.0.0.0/0.0.0.0
                  IP:0:0:0:0:0:0:0:0/0:0:0:0:0:0:0:0

            X509v3 Subject Key Identifier: 
                25:8D:9C:62:2B:50:91:B0:B9:B1:A3:AB:0B:9A:5A:08:99:C2:2D:44
    Signature Algorithm: sha256WithRSAEncryption
         a0:7d:9a:5f:40:e8:1a:88:3c:23:3a:01:66:39:f0:21:a0:7d:
         87:2a:b4:47:78:c9:36:ce:5f:df:bb:59:e2:f4:e9:75:d0:27:
         29:70:dd:4f:d7:b3:f3:4e:70:a9:00:5e:d6:f2:b1:45:b1:96:
         0d:f5:16:9a:6d:e6:d0:c6:d5:e0:25:d2:1b:fd:6e:19:73:1d:
         b6:dd:e0:2e:83:d8:69:74:35:39:5d:9f:1c:62:e7:9f:22:0e:
         9a:8c:c4:70:ba:7e:a5:80:d7:f9:54:2b:e1:da:0c:0a:f2:11:
         08:7c:fb:1f:57:43:d6:1f:c7:6d:af:ae:f3:c2:77:f9:88:af:
         e9:2a:2d:53:70:64:11:8d:db:0d:1a:4c:62:31:bf:87:6d:18:
         95:56:6d:00:96:a4:a7:85:40:84:f9:d7:af:36:63:f2:25:8f:
         54:83:fc:ae:e0:18:fb:b0:9a:2e:a7:1c:d8:ab:14:47:33:6f:
         55:43:2d:14:f9:f7:96:3e:68:e8:d0:3a:c7:6b:1e:43:4b:12:
         31:ea:37:e9:ea:9b:ca:2b:44:42:63:f0:5a:ec:ea:8a:53:5b:
         f5:85:8c:2e:24:7d:01:c0:76:45:2d:21:17:1f:37:6a:db:39:
         b5:50:5d:02:4b:d4:ed:91:bb:37:86:17:d6:21:7b:2b:8e:9d:
         aa:48:74:6c:ef:af:da:e1:90:06:00:99:b4:7e:b4:5f:ed:e0:
         a8:39:a0:a5:92:f7:5b:03:3a:67:ae:a1:29:a1:44:a9:58:56:
         a7:24:5e:73:f3:3e:6f:d4:8d:ad:40:a8:ef:b6:5d:1a:71:65:
         c5:22:db:c0:0a:e3:56:45:b1:fe:b3:ff:8c:d6:85:97:2f:62:
         67:75:fd:ac:e7:5b:08:44:18:06:05:44:a6:b6:41:6f:70:63:
         ff:5d:c7:dc:a6:0e:87:43:a9:03:16:27:b7:05:9c:76:d4:eb:
         a5:b9:1a:a4:56:9b:7f:79:a0:63:33:60:32:4b:d9:66:a9:c0:
         cd:94:6d:2e:bc:5c:aa:3f:3d:fa:d2:c1:38:0b:dd:84:d2:8f:
         ee:23:f9:d6:9c:3d:01:68:b1:67:ec:bd:ef:59:23:2a:97:9a:
         92:3e:3a:bc:b3:44:33:7f:55:85:ce:ef:53:b5:aa:b7:ce:bf:
         0b:91:4f:42:a7:c6:5a:84:a0:95:ca:d0:b7:b4:d5:1c:5b:35:
         85:4b:ae:c7:bd:5b:31:27:21:de:de:5f:6a:b4:06:1e:40:c5:
         02:66:bb:09:a7:4f:16:8e:72:da:41:f9:c4:4f:84:d8:b7:62:
         40:45:bb:ca:b7:ad:45:2d:0c:3e:08:98:19:a5:50:ee:d3:da:
         ce:b2:18:55:d7:dd:28:0e
-----BEGIN CERTIFICATE-----
MIIGGDCCBACgAwIBAgIRALQ1KnLDZqRzMi21A7Mp0ZAwDQYJKoZIhvcNAQELBQAw
MDELMAkGA1UEBhMCRVMxDzANBgNVBAoMBlRlbGVjbzEQMA4GA1UEAwwHUm9vdCBD
QTAeFw0yMTEwMjUxNjA5NTlaFw0zMTEwMjMxNjA5NTlaMDMxCzAJBgNVBAYTAkVT
MQ8wDQYDVQQKDAZUZWxlY28xEzARBgNVBAMMCmRzYV9zZXJ2ZXIwggG3MIIBLAYH
KoZIzjgEATCCAR8CgYEA/X9TgR11EilS30qcLuzk5/YRt1I870QAwx4/gLZRJmlF
XUAiUftZPY1Y+r/F9bow9subVWzXgTuAHTRv8mZgt2uZUKWkn5/oBHsQIsJPu6nX
/rfGG/g7V+fGqKYVDwT7g/bTxR7DAjVUE1oWkTL2dfOuK2HXKu/yIgMZndFIAccC
FQCXYFCPFSMLzLKSuYKi64QL8Fgc9QKBgQD34aCF1ps93su8q1w2uFe5eZSvu/o6
6oL5V0wLPQeCZ1FZV4661FlP5nEHEIGAtEkWcSPoTCgWE7fPCTKMyKbhPBZ6i1R8
jSjgo64eK7OmdZFuo38L+iE1YvH7YnoBJDvMpPG+qFGQiaiD3+Fa5Z8GkotmXoB7
VSVkAUw7/s9JKgOBhAACgYAe9DLUlc4DIXKfpw9tO9potfbDBH5yWFh6fQZXR2aK
p7EiNyyAH8pSiqGXXHhmVjUrloQ2rh8wtGOfWW6aOUTY1QoSdiNl2BSUii76Abl1
eSslBSv5GNbR6f23nhkMtZsflPrFbyRMwguKHcnvzYqblMpmkwGlZtbuDeq47JVx
kqOCAZMwggGPMHQGCCsGAQUFBwEBBGgwZjAyBggrBgEFBQcwAoYmaHR0cDovL3Jv
b3QtY2EuZXhhbXBsZS5jb20vcm9vdC1jYS5jcnQwMAYIKwYBBQUHMAGGJGh0dHA6
Ly9vY3NwLnJvb3QtY2EuZXhhbXBsZS5jb206OTA4MDAfBgNVHSMEGDAWgBRcThwy
9nvlgcELkoK09BudzALm0zASBgNVHRMBAf8ECDAGAQH/AgEAMDcGA1UdHwQwMC4w
LKAqoCiGJmh0dHA6Ly9yb290LWNhLmV4YW1wbGUuY29tL3Jvb3QtY2EuY3JsMB0G
A1UdJQQWMBQGCCsGAQUFBwMCBggrBgEFBQcDATAOBgNVHQ8BAf8EBAMCAQYwWwYD
VR0eBFQwUqAeMA2CC2V4YW1wbGUuY29tMA2CC2V4YW1wbGUub3JnoTAwCocIAAAA
AAAAAAAwIocgAAAAAAAAAAAAAAAAAAAAAAAAAAAAAAAAAAAAAAAAAAAwHQYDVR0O
BBYEFCWNnGIrUJGwubGjqwuaWgiZwi1EMA0GCSqGSIb3DQEBCwUAA4ICAQCgfZpf
QOgaiDwjOgFmOfAhoH2HKrRHeMk2zl/fu1ni9Ol10CcpcN1P17PzTnCpAF7W8rFF
sZYN9RaabebQxtXgJdIb/W4Zcx223eAug9hpdDU5XZ8cYuefIg6ajMRwun6lgNf5
VCvh2gwK8hEIfPsfV0PWH8dtr67zwnf5iK/pKi1TcGQRjdsNGkxiMb+HbRiVVm0A
lqSnhUCE+devNmPyJY9Ug/yu4Bj7sJoupxzYqxRHM29VQy0U+feWPmjo0DrHax5D
SxIx6jfp6pvKK0RCY/Ba7OqKU1v1hYwuJH0BwHZFLSEXHzdq2zm1UF0CS9Ttkbs3
hhfWIXsrjp2qSHRs76/a4ZAGAJm0frRf7eCoOaClkvdbAzpnrqEpoUSpWFanJF5z
8z5v1I2tQKjvtl0acWXFItvACuNWRbH+s/+M1oWXL2Jndf2s51sIRBgGBUSmtkFv
cGP/Xcfcpg6HQ6kDFie3BZx21OuluRqkVpt/eaBjM2AyS9lmqcDNlG0uvFyqPz36
0sE4C92E0o/uI/nWnD0BaLFn7L3vWSMql5qSPjq8s0Qzf1WFzu9Ttaq3zr8LkU9C
p8ZahKCVytC3tNUcWzWFS67HvVsxJyHe3l9qtAYeQMUCZrsJp08WjnLaQfnET4TY
t2JARbvKt61FLQw+CJgZpVDu09rOshhV190oDg==
-----END CERTIFICATE-----
