Certificate:
    Data:
        Version: 3 (0x2)
        Serial Number:
            b4:35:2a:72:c3:66:a4:73:32:2d:b5:03:b3:29:d1:91
        Signature Algorithm: sha256WithRSAEncryption
        Issuer: C=ES, O=Teleco, CN=Root CA
        Validity
            Not Before: Oct 25 16:13:26 2021 GMT
            Not After : Oct 23 16:13:26 2031 GMT
        Subject: C=ES, O=Teleco, CN=dsa_cliente
        Subject Public Key Info:
            Public Key Algorithm: dsaEncryption
                pub: 
                    4a:14:b1:41:ac:58:af:59:af:53:31:b2:e3:94:fb:
                    d9:28:8b:76:d5:b9:90:1c:e9:96:f1:3e:d9:7a:aa:
                    85:5b:19:41:82:c4:3c:6c:39:6c:33:83:35:3e:86:
                    f5:0f:32:c6:64:18:76:99:c1:9e:f3:34:b3:bf:60:
                    96:8c:ac:76:c3:4b:f5:51:ca:ba:e0:cf:99:71:fc:
                    5c:d4:dd:6d:27:b4:b5:ba:b4:80:e1:2b:3e:2c:d3:
                    fe:f6:bf:53:68:9e:f7:75:f7:fa:a2:3b:5f:33:22:
                    0b:8a:f2:5c:5c:b6:d7:1e:f6:7a:b8:87:c0:9b:0d:
                    82:81:94:56:04:3b:25:fa
                P:   
                    00:fd:7f:53:81:1d:75:12:29:52:df:4a:9c:2e:ec:
                    e4:e7:f6:11:b7:52:3c:ef:44:00:c3:1e:3f:80:b6:
                    51:26:69:45:5d:40:22:51:fb:59:3d:8d:58:fa:bf:
                    c5:f5:ba:30:f6:cb:9b:55:6c:d7:81:3b:80:1d:34:
                    6f:f2:66:60:b7:6b:99:50:a5:a4:9f:9f:e8:04:7b:
                    10:22:c2:4f:bb:a9:d7:fe:b7:c6:1b:f8:3b:57:e7:
                    c6:a8:a6:15:0f:04:fb:83:f6:d3:c5:1e:c3:02:35:
                    54:13:5a:16:91:32:f6:75:f3:ae:2b:61:d7:2a:ef:
                    f2:22:03:19:9d:d1:48:01:c7
                Q:   
                    00:97:60:50:8f:15:23:0b:cc:b2:92:b9:82:a2:eb:
                    84:0b:f0:58:1c:f5
                G:   
                    00:f7:e1:a0:85:d6:9b:3d:de:cb:bc:ab:5c:36:b8:
                    57:b9:79:94:af:bb:fa:3a:ea:82:f9:57:4c:0b:3d:
                    07:82:67:51:59:57:8e:ba:d4:59:4f:e6:71:07:10:
                    81:80:b4:49:16:71:23:e8:4c:28:16:13:b7:cf:09:
                    32:8c:c8:a6:e1:3c:16:7a:8b:54:7c:8d:28:e0:a3:
                    ae:1e:2b:b3:a6:75:91:6e:a3:7f:0b:fa:21:35:62:
                    f1:fb:62:7a:01:24:3b:cc:a4:f1:be:a8:51:90:89:
                    a8:83:df:e1:5a:e5:9f:06:92:8b:66:5e:80:7b:55:
                    25:64:01:4c:3b:fe:cf:49:2a
        X509v3 extensions:
            Authority Information Access: 
                CA Issuers - URI:http://root-ca.example.com/root-ca.crt
                OCSP - URI:http://ocsp.root-ca.example.com:9080

            X509v3 Authority Key Identifier: 
                keyid:5C:4E:1C:32:F6:7B:E5:81:C1:0B:92:82:B4:F4:1B:9D:CC:02:E6:D3

            X509v3 Basic Constraints: critical
                CA:TRUE, pathlen:0
            X509v3 CRL Distribution Points: 

                Full Name:
                  URI:http://root-ca.example.com/root-ca.crl

            X509v3 Extended Key Usage: 
                TLS Web Client Authentication, TLS Web Server Authentication
            X509v3 Key Usage: critical
                Certificate Sign, CRL Sign
            X509v3 Name Constraints: 
                Permitted:
                  DNS:example.com
                  DNS:example.org
                Excluded:
                  IP:0.0.0.0/0.0.0.0
                  IP:0:0:0:0:0:0:0:0/0:0:0:0:0:0:0:0

            X509v3 Subject Key Identifier: 
                01:5C:5E:73:37:58:A2:D5:B3:D1:3E:1B:90:78:C9:4B:BA:FC:80:9A
    Signature Algorithm: sha256WithRSAEncryption
         63:ff:40:15:ff:05:c8:17:48:44:a1:db:de:06:32:29:56:ef:
         21:28:47:66:ff:ea:c3:f9:94:83:55:9f:cf:a9:2d:53:3d:8d:
         dd:57:2e:6d:80:3d:11:24:fd:e0:a1:aa:bf:cd:bf:03:65:a9:
         33:5f:7f:66:d1:54:c4:1f:3b:85:d9:48:3a:a3:c9:06:75:d2:
         de:50:6d:37:76:fe:b2:5e:af:cc:35:66:9c:9b:a6:be:6b:97:
         22:d5:08:fd:8a:76:f4:5c:76:10:a7:16:e1:0d:3f:06:1e:33:
         74:14:32:8a:8e:39:80:d8:0a:1a:25:38:07:96:ef:62:37:c2:
         fd:2f:3d:2d:73:59:bb:f4:fc:46:86:1f:85:49:05:7a:38:2a:
         7b:0e:12:b1:d9:7a:5e:ba:30:2e:39:45:1a:42:9b:cb:6c:85:
         d3:fd:b0:b9:98:4a:b8:36:f0:72:e7:45:a0:2a:99:76:6b:6a:
         d3:c6:4f:7e:5e:fe:16:a6:89:0e:7e:97:0a:b7:7e:e7:65:40:
         9f:c2:3f:e3:59:ca:ef:3d:f7:c8:f5:d0:4a:84:07:19:9d:e2:
         75:be:c7:94:bf:74:63:32:2c:50:a9:91:12:9c:4b:58:9d:7d:
         36:6a:ff:55:e6:3a:52:3b:bd:d1:2b:d9:5f:4c:c5:f4:c5:ac:
         44:e2:38:8d:9f:18:1e:4e:85:16:95:d8:82:95:18:42:1a:3d:
         4d:b0:82:23:72:6b:ed:06:14:a8:74:36:97:22:7e:12:de:bd:
         a6:1c:01:a9:16:6a:60:88:79:b0:89:54:27:a5:a2:0b:d6:4b:
         20:d6:d0:56:0a:ad:ae:8a:c5:ee:92:83:aa:c9:9d:bb:d0:ee:
         bf:0d:6b:bd:f8:69:70:23:e9:d7:7c:1d:a8:73:8e:f2:bd:3b:
         b2:02:25:f4:83:14:65:f0:af:46:04:df:5b:4c:44:c0:d0:4c:
         ab:3e:1e:dd:49:96:ef:69:af:15:ef:5b:5f:c0:db:60:66:25:
         56:54:98:32:14:77:4b:d9:67:aa:a4:01:ab:12:6d:c1:d1:64:
         73:02:e2:4e:24:67:c4:e7:fa:3f:94:9d:4e:79:75:ea:cd:ec:
         6e:48:7c:63:f7:37:e2:4c:d0:1a:cc:f4:f8:4b:fb:6a:9f:7e:
         4b:61:d6:bb:05:91:c8:2c:c0:4d:b6:46:c0:e9:6e:ba:04:f7:
         f2:73:43:80:b4:5f:3d:a3:b7:f0:c9:51:96:ff:b5:73:30:56:
         d4:ac:5b:95:a6:81:53:33:42:b7:61:ff:b9:e4:24:4a:7d:6d:
         09:ee:d1:6d:4b:72:36:de:c2:86:be:38:45:de:37:9e:f8:f5:
         fa:a2:41:5a:54:6f:be:3b
-----BEGIN CERTIFICATE-----
MIIGGTCCBAGgAwIBAgIRALQ1KnLDZqRzMi21A7Mp0ZEwDQYJKoZIhvcNAQELBQAw
MDELMAkGA1UEBhMCRVMxDzANBgNVBAoMBlRlbGVjbzEQMA4GA1UEAwwHUm9vdCBD
QTAeFw0yMTEwMjUxNjEzMjZaFw0zMTEwMjMxNjEzMjZaMDQxCzAJBgNVBAYTAkVT
MQ8wDQYDVQQKDAZUZWxlY28xFDASBgNVBAMMC2RzYV9jbGllbnRlMIIBtzCCASwG
ByqGSM44BAEwggEfAoGBAP1/U4EddRIpUt9KnC7s5Of2EbdSPO9EAMMeP4C2USZp
RV1AIlH7WT2NWPq/xfW6MPbLm1Vs14E7gB00b/JmYLdrmVClpJ+f6AR7ECLCT7up
1/63xhv4O1fnxqimFQ8E+4P208UewwI1VBNaFpEy9nXzrith1yrv8iIDGZ3RSAHH
AhUAl2BQjxUjC8yykrmCouuEC/BYHPUCgYEA9+GghdabPd7LvKtcNrhXuXmUr7v6
OuqC+VdMCz0HgmdRWVeOutRZT+ZxBxCBgLRJFnEj6EwoFhO3zwkyjMim4TwWeotU
fI0o4KOuHiuzpnWRbqN/C/ohNWLx+2J6ASQ7zKTxvqhRkImog9/hWuWfBpKLZl6A
e1UlZAFMO/7PSSoDgYQAAoGAShSxQaxYr1mvUzGy45T72SiLdtW5kBzplvE+2Xqq
hVsZQYLEPGw5bDODNT6G9Q8yxmQYdpnBnvM0s79gloysdsNL9VHKuuDPmXH8XNTd
bSe0tbq0gOErPizT/va/U2ie93X3+qI7XzMiC4ryXFy21x72eriHwJsNgoGUVgQ7
JfqjggGTMIIBjzB0BggrBgEFBQcBAQRoMGYwMgYIKwYBBQUHMAKGJmh0dHA6Ly9y
b290LWNhLmV4YW1wbGUuY29tL3Jvb3QtY2EuY3J0MDAGCCsGAQUFBzABhiRodHRw
Oi8vb2NzcC5yb290LWNhLmV4YW1wbGUuY29tOjkwODAwHwYDVR0jBBgwFoAUXE4c
MvZ75YHBC5KCtPQbncwC5tMwEgYDVR0TAQH/BAgwBgEB/wIBADA3BgNVHR8EMDAu
MCygKqAohiZodHRwOi8vcm9vdC1jYS5leGFtcGxlLmNvbS9yb290LWNhLmNybDAd
BgNVHSUEFjAUBggrBgEFBQcDAgYIKwYBBQUHAwEwDgYDVR0PAQH/BAQDAgEGMFsG
A1UdHgRUMFKgHjANggtleGFtcGxlLmNvbTANggtleGFtcGxlLm9yZ6EwMAqHCAAA
AAAAAAAAMCKHIAAAAAAAAAAAAAAAAAAAAAAAAAAAAAAAAAAAAAAAAAAAMB0GA1Ud
DgQWBBQBXF5zN1ii1bPRPhuQeMlLuvyAmjANBgkqhkiG9w0BAQsFAAOCAgEAY/9A
Ff8FyBdIRKHb3gYyKVbvIShHZv/qw/mUg1Wfz6ktUz2N3VcubYA9EST94KGqv82/
A2WpM19/ZtFUxB87hdlIOqPJBnXS3lBtN3b+sl6vzDVmnJumvmuXItUI/Yp29Fx2
EKcW4Q0/Bh4zdBQyio45gNgKGiU4B5bvYjfC/S89LXNZu/T8RoYfhUkFejgqew4S
sdl6XrowLjlFGkKby2yF0/2wuZhKuDbwcudFoCqZdmtq08ZPfl7+FqaJDn6XCrd+
52VAn8I/41nK7z33yPXQSoQHGZ3idb7HlL90YzIsUKmREpxLWJ19Nmr/VeY6Uju9
0SvZX0zF9MWsROI4jZ8YHk6FFpXYgpUYQho9TbCCI3Jr7QYUqHQ2lyJ+Et69phwB
qRZqYIh5sIlUJ6WiC9ZLINbQVgqtrorF7pKDqsmdu9Duvw1rvfhpcCPp13wdqHOO
8r07sgIl9IMUZfCvRgTfW0xEwNBMqz4e3UmW72mvFe9bX8DbYGYlVlSYMhR3S9ln
qqQBqxJtwdFkcwLiTiRnxOf6P5SdTnl16s3sbkh8Y/c34kzQGsz0+Ev7ap9+S2HW
uwWRyCzATbZGwOluugT38nNDgLRfPaO38MlRlv+1czBW1KxblaaBUzNCt2H/ueQk
Sn1tCe7RbUtyNt7Chr44Rd43nvj1+qJBWlRvvjs=
-----END CERTIFICATE-----
